	.file	"var.cpp"
	.text
	.section	.text._ZNSt11char_traitsIcE6assignERcRKc,"axG",@progbits,_ZNSt11char_traitsIcE6assignERcRKc,comdat
	.weak	_ZNSt11char_traitsIcE6assignERcRKc
	.type	_ZNSt11char_traitsIcE6assignERcRKc, @function
_ZNSt11char_traitsIcE6assignERcRKc:
.LFB112:
	.cfi_startproc
	pushq	%rbp
	.cfi_def_cfa_offset 16
	.cfi_offset 6, -16
	movq	%rsp, %rbp
	.cfi_def_cfa_register 6
	movq	%rdi, -8(%rbp)
	movq	%rsi, -16(%rbp)
	movq	-16(%rbp), %rax
	movzbl	(%rax), %edx
	movq	-8(%rbp), %rax
	movb	%dl, (%rax)
	nop
	popq	%rbp
	.cfi_def_cfa 7, 8
	ret
	.cfi_endproc
.LFE112:
	.size	_ZNSt11char_traitsIcE6assignERcRKc, .-_ZNSt11char_traitsIcE6assignERcRKc
	.section	.text._ZStanSt13_Ios_FmtflagsS_,"axG",@progbits,_ZStanSt13_Ios_FmtflagsS_,comdat
	.weak	_ZStanSt13_Ios_FmtflagsS_
	.type	_ZStanSt13_Ios_FmtflagsS_, @function
_ZStanSt13_Ios_FmtflagsS_:
.LFB1559:
	.cfi_startproc
	pushq	%rbp
	.cfi_def_cfa_offset 16
	.cfi_offset 6, -16
	movq	%rsp, %rbp
	.cfi_def_cfa_register 6
	movl	%edi, -4(%rbp)
	movl	%esi, -8(%rbp)
	movl	-4(%rbp), %eax
	andl	-8(%rbp), %eax
	popq	%rbp
	.cfi_def_cfa 7, 8
	ret
	.cfi_endproc
.LFE1559:
	.size	_ZStanSt13_Ios_FmtflagsS_, .-_ZStanSt13_Ios_FmtflagsS_
	.section	.text._ZStorSt13_Ios_FmtflagsS_,"axG",@progbits,_ZStorSt13_Ios_FmtflagsS_,comdat
	.weak	_ZStorSt13_Ios_FmtflagsS_
	.type	_ZStorSt13_Ios_FmtflagsS_, @function
_ZStorSt13_Ios_FmtflagsS_:
.LFB1560:
	.cfi_startproc
	pushq	%rbp
	.cfi_def_cfa_offset 16
	.cfi_offset 6, -16
	movq	%rsp, %rbp
	.cfi_def_cfa_register 6
	movl	%edi, -4(%rbp)
	movl	%esi, -8(%rbp)
	movl	-4(%rbp), %eax
	orl	-8(%rbp), %eax
	popq	%rbp
	.cfi_def_cfa 7, 8
	ret
	.cfi_endproc
.LFE1560:
	.size	_ZStorSt13_Ios_FmtflagsS_, .-_ZStorSt13_Ios_FmtflagsS_
	.section	.text._ZStcoSt13_Ios_Fmtflags,"axG",@progbits,_ZStcoSt13_Ios_Fmtflags,comdat
	.weak	_ZStcoSt13_Ios_Fmtflags
	.type	_ZStcoSt13_Ios_Fmtflags, @function
_ZStcoSt13_Ios_Fmtflags:
.LFB1562:
	.cfi_startproc
	pushq	%rbp
	.cfi_def_cfa_offset 16
	.cfi_offset 6, -16
	movq	%rsp, %rbp
	.cfi_def_cfa_register 6
	movl	%edi, -4(%rbp)
	movl	-4(%rbp), %eax
	notl	%eax
	popq	%rbp
	.cfi_def_cfa 7, 8
	ret
	.cfi_endproc
.LFE1562:
	.size	_ZStcoSt13_Ios_Fmtflags, .-_ZStcoSt13_Ios_Fmtflags
	.section	.text._ZStoRRSt13_Ios_FmtflagsS_,"axG",@progbits,_ZStoRRSt13_Ios_FmtflagsS_,comdat
	.weak	_ZStoRRSt13_Ios_FmtflagsS_
	.type	_ZStoRRSt13_Ios_FmtflagsS_, @function
_ZStoRRSt13_Ios_FmtflagsS_:
.LFB1563:
	.cfi_startproc
	pushq	%rbp
	.cfi_def_cfa_offset 16
	.cfi_offset 6, -16
	movq	%rsp, %rbp
	.cfi_def_cfa_register 6
	subq	$16, %rsp
	movq	%rdi, -8(%rbp)
	movl	%esi, -12(%rbp)
	movq	-8(%rbp), %rax
	movl	(%rax), %eax
	movl	-12(%rbp), %edx
	movl	%edx, %esi
	movl	%eax, %edi
	call	_ZStorSt13_Ios_FmtflagsS_
	movq	-8(%rbp), %rdx
	movl	%eax, (%rdx)
	movq	-8(%rbp), %rax
	leave
	.cfi_def_cfa 7, 8
	ret
	.cfi_endproc
.LFE1563:
	.size	_ZStoRRSt13_Ios_FmtflagsS_, .-_ZStoRRSt13_Ios_FmtflagsS_
	.section	.text._ZStaNRSt13_Ios_FmtflagsS_,"axG",@progbits,_ZStaNRSt13_Ios_FmtflagsS_,comdat
	.weak	_ZStaNRSt13_Ios_FmtflagsS_
	.type	_ZStaNRSt13_Ios_FmtflagsS_, @function
_ZStaNRSt13_Ios_FmtflagsS_:
.LFB1564:
	.cfi_startproc
	pushq	%rbp
	.cfi_def_cfa_offset 16
	.cfi_offset 6, -16
	movq	%rsp, %rbp
	.cfi_def_cfa_register 6
	subq	$16, %rsp
	movq	%rdi, -8(%rbp)
	movl	%esi, -12(%rbp)
	movq	-8(%rbp), %rax
	movl	(%rax), %eax
	movl	-12(%rbp), %edx
	movl	%edx, %esi
	movl	%eax, %edi
	call	_ZStanSt13_Ios_FmtflagsS_
	movq	-8(%rbp), %rdx
	movl	%eax, (%rdx)
	movq	-8(%rbp), %rax
	leave
	.cfi_def_cfa 7, 8
	ret
	.cfi_endproc
.LFE1564:
	.size	_ZStaNRSt13_Ios_FmtflagsS_, .-_ZStaNRSt13_Ios_FmtflagsS_
	.section	.text._ZNSt8ios_base4setfESt13_Ios_FmtflagsS0_,"axG",@progbits,_ZNSt8ios_base4setfESt13_Ios_FmtflagsS0_,comdat
	.align 2
	.weak	_ZNSt8ios_base4setfESt13_Ios_FmtflagsS0_
	.type	_ZNSt8ios_base4setfESt13_Ios_FmtflagsS0_, @function
_ZNSt8ios_base4setfESt13_Ios_FmtflagsS0_:
.LFB1593:
	.cfi_startproc
	pushq	%rbp
	.cfi_def_cfa_offset 16
	.cfi_offset 6, -16
	movq	%rsp, %rbp
	.cfi_def_cfa_register 6
	subq	$32, %rsp
	movq	%rdi, -24(%rbp)
	movl	%esi, -28(%rbp)
	movl	%edx, -32(%rbp)
	movq	-24(%rbp), %rax
	movl	24(%rax), %eax
	movl	%eax, -4(%rbp)
	movl	-32(%rbp), %eax
	movl	%eax, %edi
	call	_ZStcoSt13_Ios_Fmtflags
	movl	%eax, %edx
	movq	-24(%rbp), %rax
	addq	$24, %rax
	movl	%edx, %esi
	movq	%rax, %rdi
	call	_ZStaNRSt13_Ios_FmtflagsS_
	movl	-32(%rbp), %edx
	movl	-28(%rbp), %eax
	movl	%edx, %esi
	movl	%eax, %edi
	call	_ZStanSt13_Ios_FmtflagsS_
	movl	%eax, %edx
	movq	-24(%rbp), %rax
	addq	$24, %rax
	movl	%edx, %esi
	movq	%rax, %rdi
	call	_ZStoRRSt13_Ios_FmtflagsS_
	movl	-4(%rbp), %eax
	leave
	.cfi_def_cfa 7, 8
	ret
	.cfi_endproc
.LFE1593:
	.size	_ZNSt8ios_base4setfESt13_Ios_FmtflagsS0_, .-_ZNSt8ios_base4setfESt13_Ios_FmtflagsS0_
	.section	.text._ZSt4leftRSt8ios_base,"axG",@progbits,_ZSt4leftRSt8ios_base,comdat
	.weak	_ZSt4leftRSt8ios_base
	.type	_ZSt4leftRSt8ios_base, @function
_ZSt4leftRSt8ios_base:
.LFB1618:
	.cfi_startproc
	pushq	%rbp
	.cfi_def_cfa_offset 16
	.cfi_offset 6, -16
	movq	%rsp, %rbp
	.cfi_def_cfa_register 6
	subq	$16, %rsp
	movq	%rdi, -8(%rbp)
	movq	-8(%rbp), %rax
	movl	$176, %edx
	movl	$32, %esi
	movq	%rax, %rdi
	call	_ZNSt8ios_base4setfESt13_Ios_FmtflagsS0_
	movq	-8(%rbp), %rax
	leave
	.cfi_def_cfa 7, 8
	ret
	.cfi_endproc
.LFE1618:
	.size	_ZSt4leftRSt8ios_base, .-_ZSt4leftRSt8ios_base
	.section	.text._ZSt5fixedRSt8ios_base,"axG",@progbits,_ZSt5fixedRSt8ios_base,comdat
	.weak	_ZSt5fixedRSt8ios_base
	.type	_ZSt5fixedRSt8ios_base, @function
_ZSt5fixedRSt8ios_base:
.LFB1623:
	.cfi_startproc
	pushq	%rbp
	.cfi_def_cfa_offset 16
	.cfi_offset 6, -16
	movq	%rsp, %rbp
	.cfi_def_cfa_register 6
	subq	$16, %rsp
	movq	%rdi, -8(%rbp)
	movq	-8(%rbp), %rax
	movl	$260, %edx
	movl	$4, %esi
	movq	%rax, %rdi
	call	_ZNSt8ios_base4setfESt13_Ios_FmtflagsS0_
	movq	-8(%rbp), %rax
	leave
	.cfi_def_cfa 7, 8
	ret
	.cfi_endproc
.LFE1623:
	.size	_ZSt5fixedRSt8ios_base, .-_ZSt5fixedRSt8ios_base
#APP
	.globl _ZSt21ios_base_library_initv
#NO_APP
	.section	.text._ZSt12setprecisioni,"axG",@progbits,_ZSt12setprecisioni,comdat
	.weak	_ZSt12setprecisioni
	.type	_ZSt12setprecisioni, @function
_ZSt12setprecisioni:
.LFB2238:
	.cfi_startproc
	pushq	%rbp
	.cfi_def_cfa_offset 16
	.cfi_offset 6, -16
	movq	%rsp, %rbp
	.cfi_def_cfa_register 6
	movl	%edi, -4(%rbp)
	movl	-4(%rbp), %eax
	popq	%rbp
	.cfi_def_cfa 7, 8
	ret
	.cfi_endproc
.LFE2238:
	.size	_ZSt12setprecisioni, .-_ZSt12setprecisioni
	.section	.text._ZSt4setwi,"axG",@progbits,_ZSt4setwi,comdat
	.weak	_ZSt4setwi
	.type	_ZSt4setwi, @function
_ZSt4setwi:
.LFB2241:
	.cfi_startproc
	pushq	%rbp
	.cfi_def_cfa_offset 16
	.cfi_offset 6, -16
	movq	%rsp, %rbp
	.cfi_def_cfa_register 6
	movl	%edi, -4(%rbp)
	movl	-4(%rbp), %eax
	popq	%rbp
	.cfi_def_cfa 7, 8
	ret
	.cfi_endproc
.LFE2241:
	.size	_ZSt4setwi, .-_ZSt4setwi
	.section	.rodata
.LC0:
	.string	"--Input Data--\n"
.LC1:
	.string	"Nama: "
.LC2:
	.string	"Umur: "
.LC3:
	.string	"Tinggi Badan: "
.LC4:
	.string	"\n--Output Data--\n"
.LC5:
	.string	"Nama:"
.LC6:
	.string	"\n"
.LC7:
	.string	"Umur:"
.LC8:
	.string	"CM\n"
.LC9:
	.string	"--Size Of data--\n"
.LC10:
	.string	"Size Of String: "
.LC11:
	.string	"Bytes\n"
.LC12:
	.string	"Size Of Int: "
.LC13:
	.string	"Size Of Float: "
	.text
	.globl	main
	.type	main, @function
main:
.LFB2256:
	.cfi_startproc
	.cfi_personality 0x9b,DW.ref.__gxx_personality_v0
	.cfi_lsda 0x1b,.LLSDA2256
	pushq	%rbp
	.cfi_def_cfa_offset 16
	.cfi_offset 6, -16
	movq	%rsp, %rbp
	.cfi_def_cfa_register 6
	pushq	%rbx
	subq	$56, %rsp
	.cfi_offset 3, -24
	leaq	-48(%rbp), %rax
	movq	%rax, %rdi
	call	_ZNSt7__cxx1112basic_stringIcSt11char_traitsIcESaIcEEC1Ev
	leaq	.LC0(%rip), %rdx
	leaq	_ZSt4cout(%rip), %rax
	movq	%rdx, %rsi
	movq	%rax, %rdi
.LEHB0:
	call	_ZStlsISt11char_traitsIcEERSt13basic_ostreamIcT_ES5_PKc@PLT
	leaq	.LC1(%rip), %rdx
	leaq	_ZSt4cout(%rip), %rax
	movq	%rdx, %rsi
	movq	%rax, %rdi
	call	_ZStlsISt11char_traitsIcEERSt13basic_ostreamIcT_ES5_PKc@PLT
	leaq	-48(%rbp), %rax
	leaq	_ZSt3cin(%rip), %rdx
	movq	%rax, %rsi
	movq	%rdx, %rdi
	call	_ZSt7getlineIcSt11char_traitsIcESaIcEERSt13basic_istreamIT_T0_ES7_RNSt7__cxx1112basic_stringIS4_S5_T1_EE@PLT
	leaq	.LC2(%rip), %rdx
	leaq	_ZSt4cout(%rip), %rax
	movq	%rdx, %rsi
	movq	%rax, %rdi
	call	_ZStlsISt11char_traitsIcEERSt13basic_ostreamIcT_ES5_PKc@PLT
	leaq	-52(%rbp), %rax
	leaq	_ZSt3cin(%rip), %rdx
	movq	%rax, %rsi
	movq	%rdx, %rdi
	call	_ZNSirsERi@PLT
	leaq	.LC3(%rip), %rdx
	leaq	_ZSt4cout(%rip), %rax
	movq	%rdx, %rsi
	movq	%rax, %rdi
	call	_ZStlsISt11char_traitsIcEERSt13basic_ostreamIcT_ES5_PKc@PLT
	leaq	-56(%rbp), %rax
	leaq	_ZSt3cin(%rip), %rdx
	movq	%rax, %rsi
	movq	%rdx, %rdi
	call	_ZNSirsERf@PLT
	leaq	.LC4(%rip), %rdx
	leaq	_ZSt4cout(%rip), %rax
	movq	%rdx, %rsi
	movq	%rax, %rdi
	call	_ZStlsISt11char_traitsIcEERSt13basic_ostreamIcT_ES5_PKc@PLT
	leaq	_ZSt4leftRSt8ios_base(%rip), %rdx
	leaq	_ZSt4cout(%rip), %rax
	movq	%rdx, %rsi
	movq	%rax, %rdi
	call	_ZNSolsEPFRSt8ios_baseS0_E@PLT
	movl	$15, %edi
	call	_ZSt4setwi
	movl	%eax, %edx
	leaq	_ZSt4cout(%rip), %rax
	movl	%edx, %esi
	movq	%rax, %rdi
	call	_ZStlsIcSt11char_traitsIcEERSt13basic_ostreamIT_T0_ES6_St5_Setw@PLT
	movq	%rax, %rdx
	leaq	.LC5(%rip), %rax
	movq	%rax, %rsi
	movq	%rdx, %rdi
	call	_ZStlsISt11char_traitsIcEERSt13basic_ostreamIcT_ES5_PKc@PLT
	movq	%rax, %rdx
	leaq	-48(%rbp), %rax
	movq	%rax, %rsi
	movq	%rdx, %rdi
	call	_ZStlsIcSt11char_traitsIcESaIcEERSt13basic_ostreamIT_T0_ES7_RKNSt7__cxx1112basic_stringIS4_S5_T1_EE@PLT
	movq	%rax, %rdx
	leaq	.LC6(%rip), %rax
	movq	%rax, %rsi
	movq	%rdx, %rdi
	call	_ZStlsISt11char_traitsIcEERSt13basic_ostreamIcT_ES5_PKc@PLT
	movl	$15, %edi
	call	_ZSt4setwi
	movl	%eax, %edx
	leaq	_ZSt4cout(%rip), %rax
	movl	%edx, %esi
	movq	%rax, %rdi
	call	_ZStlsIcSt11char_traitsIcEERSt13basic_ostreamIT_T0_ES6_St5_Setw@PLT
	movq	%rax, %rdx
	leaq	.LC7(%rip), %rax
	movq	%rax, %rsi
	movq	%rdx, %rdi
	call	_ZStlsISt11char_traitsIcEERSt13basic_ostreamIcT_ES5_PKc@PLT
	movq	%rax, %rdx
	movl	-52(%rbp), %eax
	movl	%eax, %esi
	movq	%rdx, %rdi
	call	_ZNSolsEi@PLT
	movq	%rax, %rdx
	leaq	.LC6(%rip), %rax
	movq	%rax, %rsi
	movq	%rdx, %rdi
	call	_ZStlsISt11char_traitsIcEERSt13basic_ostreamIcT_ES5_PKc@PLT
	movl	$15, %edi
	call	_ZSt4setwi
	movl	%eax, %edx
	leaq	_ZSt4cout(%rip), %rax
	movl	%edx, %esi
	movq	%rax, %rdi
	call	_ZStlsIcSt11char_traitsIcEERSt13basic_ostreamIT_T0_ES6_St5_Setw@PLT
	movq	%rax, %rdx
	leaq	.LC3(%rip), %rax
	movq	%rax, %rsi
	movq	%rdx, %rdi
	call	_ZStlsISt11char_traitsIcEERSt13basic_ostreamIcT_ES5_PKc@PLT
	movq	%rax, %rdx
	leaq	_ZSt5fixedRSt8ios_base(%rip), %rax
	movq	%rax, %rsi
	movq	%rdx, %rdi
	call	_ZNSolsEPFRSt8ios_baseS0_E@PLT
	movq	%rax, %rbx
	movl	$3, %edi
	call	_ZSt12setprecisioni
	movl	%eax, %esi
	movq	%rbx, %rdi
	call	_ZStlsIcSt11char_traitsIcEERSt13basic_ostreamIT_T0_ES6_St13_Setprecision@PLT
	movq	%rax, %rdx
	movl	-56(%rbp), %eax
	movd	%eax, %xmm0
	movq	%rdx, %rdi
	call	_ZNSolsEf@PLT
	movq	%rax, %rdx
	leaq	.LC8(%rip), %rax
	movq	%rax, %rsi
	movq	%rdx, %rdi
	call	_ZStlsISt11char_traitsIcEERSt13basic_ostreamIcT_ES5_PKc@PLT
	leaq	.LC9(%rip), %rdx
	leaq	_ZSt4cout(%rip), %rax
	movq	%rdx, %rsi
	movq	%rax, %rdi
	call	_ZStlsISt11char_traitsIcEERSt13basic_ostreamIcT_ES5_PKc@PLT
	leaq	.LC10(%rip), %rdx
	leaq	_ZSt4cout(%rip), %rax
	movq	%rdx, %rsi
	movq	%rax, %rdi
	call	_ZStlsISt11char_traitsIcEERSt13basic_ostreamIcT_ES5_PKc@PLT
	movl	$32, %esi
	movq	%rax, %rdi
	call	_ZNSolsEm@PLT
	movq	%rax, %rdx
	leaq	.LC11(%rip), %rax
	movq	%rax, %rsi
	movq	%rdx, %rdi
	call	_ZStlsISt11char_traitsIcEERSt13basic_ostreamIcT_ES5_PKc@PLT
	leaq	.LC12(%rip), %rdx
	leaq	_ZSt4cout(%rip), %rax
	movq	%rdx, %rsi
	movq	%rax, %rdi
	call	_ZStlsISt11char_traitsIcEERSt13basic_ostreamIcT_ES5_PKc@PLT
	movl	$4, %esi
	movq	%rax, %rdi
	call	_ZNSolsEm@PLT
	movq	%rax, %rdx
	leaq	.LC11(%rip), %rax
	movq	%rax, %rsi
	movq	%rdx, %rdi
	call	_ZStlsISt11char_traitsIcEERSt13basic_ostreamIcT_ES5_PKc@PLT
	leaq	.LC13(%rip), %rdx
	leaq	_ZSt4cout(%rip), %rax
	movq	%rdx, %rsi
	movq	%rax, %rdi
	call	_ZStlsISt11char_traitsIcEERSt13basic_ostreamIcT_ES5_PKc@PLT
	movl	$4, %esi
	movq	%rax, %rdi
	call	_ZNSolsEm@PLT
	movq	%rax, %rdx
	leaq	.LC11(%rip), %rax
	movq	%rax, %rsi
	movq	%rdx, %rdi
	call	_ZStlsISt11char_traitsIcEERSt13basic_ostreamIcT_ES5_PKc@PLT
.LEHE0:
	movl	$0, %ebx
	leaq	-48(%rbp), %rax
	movq	%rax, %rdi
	call	_ZNSt7__cxx1112basic_stringIcSt11char_traitsIcESaIcEED1Ev
	movl	%ebx, %eax
	jmp	.L26
.L25:
	movq	%rax, %rbx
	leaq	-48(%rbp), %rax
	movq	%rax, %rdi
	call	_ZNSt7__cxx1112basic_stringIcSt11char_traitsIcESaIcEED1Ev
	movq	%rbx, %rax
	movq	%rax, %rdi
.LEHB1:
	call	_Unwind_Resume@PLT
.LEHE1:
.L26:
	movq	-8(%rbp), %rbx
	leave
	.cfi_def_cfa 7, 8
	ret
	.cfi_endproc
.LFE2256:
	.section	.gcc_except_table,"a",@progbits
.LLSDA2256:
	.byte	0xff
	.byte	0xff
	.byte	0x1
	.uleb128 .LLSDACSE2256-.LLSDACSB2256
.LLSDACSB2256:
	.uleb128 .LEHB0-.LFB2256
	.uleb128 .LEHE0-.LEHB0
	.uleb128 .L25-.LFB2256
	.uleb128 0
	.uleb128 .LEHB1-.LFB2256
	.uleb128 .LEHE1-.LEHB1
	.uleb128 0
	.uleb128 0
.LLSDACSE2256:
	.text
	.size	main, .-main
	.section	.text._ZNSt7__cxx1112basic_stringIcSt11char_traitsIcESaIcEE12_Alloc_hiderD2Ev,"axG",@progbits,_ZNSt7__cxx1112basic_stringIcSt11char_traitsIcESaIcEE12_Alloc_hiderD5Ev,comdat
	.align 2
	.weak	_ZNSt7__cxx1112basic_stringIcSt11char_traitsIcESaIcEE12_Alloc_hiderD2Ev
	.type	_ZNSt7__cxx1112basic_stringIcSt11char_traitsIcESaIcEE12_Alloc_hiderD2Ev, @function
_ZNSt7__cxx1112basic_stringIcSt11char_traitsIcESaIcEE12_Alloc_hiderD2Ev:
.LFB2358:
	.cfi_startproc
	pushq	%rbp
	.cfi_def_cfa_offset 16
	.cfi_offset 6, -16
	movq	%rsp, %rbp
	.cfi_def_cfa_register 6
	subq	$32, %rsp
	movq	%rdi, -24(%rbp)
	movq	-24(%rbp), %rax
	movq	%rax, -8(%rbp)
	movq	-8(%rbp), %rax
	movq	%rax, %rdi
	call	_ZNSt15__new_allocatorIcED2Ev
	nop
	nop
	leave
	.cfi_def_cfa 7, 8
	ret
	.cfi_endproc
.LFE2358:
	.size	_ZNSt7__cxx1112basic_stringIcSt11char_traitsIcESaIcEE12_Alloc_hiderD2Ev, .-_ZNSt7__cxx1112basic_stringIcSt11char_traitsIcESaIcEE12_Alloc_hiderD2Ev
	.weak	_ZNSt7__cxx1112basic_stringIcSt11char_traitsIcESaIcEE12_Alloc_hiderD1Ev
	.set	_ZNSt7__cxx1112basic_stringIcSt11char_traitsIcESaIcEE12_Alloc_hiderD1Ev,_ZNSt7__cxx1112basic_stringIcSt11char_traitsIcESaIcEE12_Alloc_hiderD2Ev
	.section	.text._ZNSt7__cxx1112basic_stringIcSt11char_traitsIcESaIcEEC2Ev,"axG",@progbits,_ZNSt7__cxx1112basic_stringIcSt11char_traitsIcESaIcEEC5Ev,comdat
	.align 2
	.weak	_ZNSt7__cxx1112basic_stringIcSt11char_traitsIcESaIcEEC2Ev
	.type	_ZNSt7__cxx1112basic_stringIcSt11char_traitsIcESaIcEEC2Ev, @function
_ZNSt7__cxx1112basic_stringIcSt11char_traitsIcESaIcEEC2Ev:
.LFB2360:
	.cfi_startproc
	.cfi_personality 0x9b,DW.ref.__gxx_personality_v0
	.cfi_lsda 0x1b,.LLSDA2360
	pushq	%rbp
	.cfi_def_cfa_offset 16
	.cfi_offset 6, -16
	movq	%rsp, %rbp
	.cfi_def_cfa_register 6
	pushq	%rbx
	subq	$56, %rsp
	.cfi_offset 3, -24
	movq	%rdi, -56(%rbp)
	movq	-56(%rbp), %rbx
	leaq	-33(%rbp), %rax
	movq	%rax, -32(%rbp)
	nop
	nop
	movq	-56(%rbp), %rax
	movq	%rax, %rdi
	call	_ZNSt7__cxx1112basic_stringIcSt11char_traitsIcESaIcEE13_M_local_dataEv
	movq	%rax, %rcx
	leaq	-33(%rbp), %rax
	movq	%rax, %rdx
	movq	%rcx, %rsi
	movq	%rbx, %rdi
	call	_ZNSt7__cxx1112basic_stringIcSt11char_traitsIcESaIcEE12_Alloc_hiderC1EPcOS3_
	leaq	-33(%rbp), %rax
	movq	%rax, %rdi
	call	_ZNSt15__new_allocatorIcED2Ev
	nop
	movq	-56(%rbp), %rax
	movq	%rax, -24(%rbp)
	nop
	movq	-56(%rbp), %rax
	movl	$0, %esi
	movq	%rax, %rdi
	call	_ZNSt7__cxx1112basic_stringIcSt11char_traitsIcESaIcEE13_M_set_lengthEm
	nop
	movq	-8(%rbp), %rbx
	leave
	.cfi_def_cfa 7, 8
	ret
	.cfi_endproc
.LFE2360:
	.section	.gcc_except_table
.LLSDA2360:
	.byte	0xff
	.byte	0xff
	.byte	0x1
	.uleb128 .LLSDACSE2360-.LLSDACSB2360
.LLSDACSB2360:
.LLSDACSE2360:
	.section	.text._ZNSt7__cxx1112basic_stringIcSt11char_traitsIcESaIcEEC2Ev,"axG",@progbits,_ZNSt7__cxx1112basic_stringIcSt11char_traitsIcESaIcEEC5Ev,comdat
	.size	_ZNSt7__cxx1112basic_stringIcSt11char_traitsIcESaIcEEC2Ev, .-_ZNSt7__cxx1112basic_stringIcSt11char_traitsIcESaIcEEC2Ev
	.weak	_ZNSt7__cxx1112basic_stringIcSt11char_traitsIcESaIcEEC1Ev
	.set	_ZNSt7__cxx1112basic_stringIcSt11char_traitsIcESaIcEEC1Ev,_ZNSt7__cxx1112basic_stringIcSt11char_traitsIcESaIcEEC2Ev
	.section	.text._ZNSt7__cxx1112basic_stringIcSt11char_traitsIcESaIcEED2Ev,"axG",@progbits,_ZNSt7__cxx1112basic_stringIcSt11char_traitsIcESaIcEED5Ev,comdat
	.align 2
	.weak	_ZNSt7__cxx1112basic_stringIcSt11char_traitsIcESaIcEED2Ev
	.type	_ZNSt7__cxx1112basic_stringIcSt11char_traitsIcESaIcEED2Ev, @function
_ZNSt7__cxx1112basic_stringIcSt11char_traitsIcESaIcEED2Ev:
.LFB2363:
	.cfi_startproc
	.cfi_personality 0x9b,DW.ref.__gxx_personality_v0
	.cfi_lsda 0x1b,.LLSDA2363
	pushq	%rbp
	.cfi_def_cfa_offset 16
	.cfi_offset 6, -16
	movq	%rsp, %rbp
	.cfi_def_cfa_register 6
	subq	$16, %rsp
	movq	%rdi, -8(%rbp)
	movq	-8(%rbp), %rax
	movq	%rax, %rdi
	call	_ZNSt7__cxx1112basic_stringIcSt11char_traitsIcESaIcEE10_M_disposeEv
	movq	-8(%rbp), %rax
	movq	%rax, %rdi
	call	_ZNSt7__cxx1112basic_stringIcSt11char_traitsIcESaIcEE12_Alloc_hiderD1Ev
	nop
	leave
	.cfi_def_cfa 7, 8
	ret
	.cfi_endproc
.LFE2363:
	.section	.gcc_except_table
.LLSDA2363:
	.byte	0xff
	.byte	0xff
	.byte	0x1
	.uleb128 .LLSDACSE2363-.LLSDACSB2363
.LLSDACSB2363:
.LLSDACSE2363:
	.section	.text._ZNSt7__cxx1112basic_stringIcSt11char_traitsIcESaIcEED2Ev,"axG",@progbits,_ZNSt7__cxx1112basic_stringIcSt11char_traitsIcESaIcEED5Ev,comdat
	.size	_ZNSt7__cxx1112basic_stringIcSt11char_traitsIcESaIcEED2Ev, .-_ZNSt7__cxx1112basic_stringIcSt11char_traitsIcESaIcEED2Ev
	.weak	_ZNSt7__cxx1112basic_stringIcSt11char_traitsIcESaIcEED1Ev
	.set	_ZNSt7__cxx1112basic_stringIcSt11char_traitsIcESaIcEED1Ev,_ZNSt7__cxx1112basic_stringIcSt11char_traitsIcESaIcEED2Ev
	.section	.text._ZNKSt7__cxx1112basic_stringIcSt11char_traitsIcESaIcEE7_M_dataEv,"axG",@progbits,_ZNKSt7__cxx1112basic_stringIcSt11char_traitsIcESaIcEE7_M_dataEv,comdat
	.align 2
	.weak	_ZNKSt7__cxx1112basic_stringIcSt11char_traitsIcESaIcEE7_M_dataEv
	.type	_ZNKSt7__cxx1112basic_stringIcSt11char_traitsIcESaIcEE7_M_dataEv, @function
_ZNKSt7__cxx1112basic_stringIcSt11char_traitsIcESaIcEE7_M_dataEv:
.LFB2559:
	.cfi_startproc
	pushq	%rbp
	.cfi_def_cfa_offset 16
	.cfi_offset 6, -16
	movq	%rsp, %rbp
	.cfi_def_cfa_register 6
	movq	%rdi, -8(%rbp)
	movq	-8(%rbp), %rax
	movq	(%rax), %rax
	popq	%rbp
	.cfi_def_cfa 7, 8
	ret
	.cfi_endproc
.LFE2559:
	.size	_ZNKSt7__cxx1112basic_stringIcSt11char_traitsIcESaIcEE7_M_dataEv, .-_ZNKSt7__cxx1112basic_stringIcSt11char_traitsIcESaIcEE7_M_dataEv
	.section	.text._ZNSt7__cxx1112basic_stringIcSt11char_traitsIcESaIcEE13_M_local_dataEv,"axG",@progbits,_ZNSt7__cxx1112basic_stringIcSt11char_traitsIcESaIcEE13_M_local_dataEv,comdat
	.align 2
	.weak	_ZNSt7__cxx1112basic_stringIcSt11char_traitsIcESaIcEE13_M_local_dataEv
	.type	_ZNSt7__cxx1112basic_stringIcSt11char_traitsIcESaIcEE13_M_local_dataEv, @function
_ZNSt7__cxx1112basic_stringIcSt11char_traitsIcESaIcEE13_M_local_dataEv:
.LFB2560:
	.cfi_startproc
	pushq	%rbp
	.cfi_def_cfa_offset 16
	.cfi_offset 6, -16
	movq	%rsp, %rbp
	.cfi_def_cfa_register 6
	subq	$16, %rsp
	movq	%rdi, -8(%rbp)
	movq	-8(%rbp), %rax
	addq	$16, %rax
	movq	%rax, %rdi
	call	_ZNSt19__ptr_traits_ptr_toIPccLb0EE10pointer_toERc
	leave
	.cfi_def_cfa 7, 8
	ret
	.cfi_endproc
.LFE2560:
	.size	_ZNSt7__cxx1112basic_stringIcSt11char_traitsIcESaIcEE13_M_local_dataEv, .-_ZNSt7__cxx1112basic_stringIcSt11char_traitsIcESaIcEE13_M_local_dataEv
	.section	.text._ZNSt7__cxx1112basic_stringIcSt11char_traitsIcESaIcEE12_Alloc_hiderC2EPcOS3_,"axG",@progbits,_ZNSt7__cxx1112basic_stringIcSt11char_traitsIcESaIcEE12_Alloc_hiderC5EPcOS3_,comdat
	.align 2
	.weak	_ZNSt7__cxx1112basic_stringIcSt11char_traitsIcESaIcEE12_Alloc_hiderC2EPcOS3_
	.type	_ZNSt7__cxx1112basic_stringIcSt11char_traitsIcESaIcEE12_Alloc_hiderC2EPcOS3_, @function
_ZNSt7__cxx1112basic_stringIcSt11char_traitsIcESaIcEE12_Alloc_hiderC2EPcOS3_:
.LFB2562:
	.cfi_startproc
	pushq	%rbp
	.cfi_def_cfa_offset 16
	.cfi_offset 6, -16
	movq	%rsp, %rbp
	.cfi_def_cfa_register 6
	movq	%rdi, -56(%rbp)
	movq	%rsi, -64(%rbp)
	movq	%rdx, -72(%rbp)
	movq	-72(%rbp), %rax
	movq	%rax, -40(%rbp)
	movq	-40(%rbp), %rax
	movq	-56(%rbp), %rdx
	movq	%rdx, -8(%rbp)
	movq	%rax, -16(%rbp)
	movq	-8(%rbp), %rax
	movq	%rax, -24(%rbp)
	movq	-16(%rbp), %rax
	movq	%rax, -32(%rbp)
	nop
	nop
	movq	-56(%rbp), %rax
	movq	-64(%rbp), %rdx
	movq	%rdx, (%rax)
	nop
	popq	%rbp
	.cfi_def_cfa 7, 8
	ret
	.cfi_endproc
.LFE2562:
	.size	_ZNSt7__cxx1112basic_stringIcSt11char_traitsIcESaIcEE12_Alloc_hiderC2EPcOS3_, .-_ZNSt7__cxx1112basic_stringIcSt11char_traitsIcESaIcEE12_Alloc_hiderC2EPcOS3_
	.weak	_ZNSt7__cxx1112basic_stringIcSt11char_traitsIcESaIcEE12_Alloc_hiderC1EPcOS3_
	.set	_ZNSt7__cxx1112basic_stringIcSt11char_traitsIcESaIcEE12_Alloc_hiderC1EPcOS3_,_ZNSt7__cxx1112basic_stringIcSt11char_traitsIcESaIcEE12_Alloc_hiderC2EPcOS3_
	.section	.text._ZNSt7__cxx1112basic_stringIcSt11char_traitsIcESaIcEE13_M_set_lengthEm,"axG",@progbits,_ZNSt7__cxx1112basic_stringIcSt11char_traitsIcESaIcEE13_M_set_lengthEm,comdat
	.align 2
	.weak	_ZNSt7__cxx1112basic_stringIcSt11char_traitsIcESaIcEE13_M_set_lengthEm
	.type	_ZNSt7__cxx1112basic_stringIcSt11char_traitsIcESaIcEE13_M_set_lengthEm, @function
_ZNSt7__cxx1112basic_stringIcSt11char_traitsIcESaIcEE13_M_set_lengthEm:
.LFB2565:
	.cfi_startproc
	pushq	%rbp
	.cfi_def_cfa_offset 16
	.cfi_offset 6, -16
	movq	%rsp, %rbp
	.cfi_def_cfa_register 6
	subq	$32, %rsp
	movq	%rdi, -24(%rbp)
	movq	%rsi, -32(%rbp)
	movq	-32(%rbp), %rdx
	movq	-24(%rbp), %rax
	movq	%rdx, %rsi
	movq	%rax, %rdi
	call	_ZNSt7__cxx1112basic_stringIcSt11char_traitsIcESaIcEE9_M_lengthEm
	movb	$0, -1(%rbp)
	movq	-24(%rbp), %rax
	movq	%rax, %rdi
	call	_ZNKSt7__cxx1112basic_stringIcSt11char_traitsIcESaIcEE7_M_dataEv
	movq	-32(%rbp), %rdx
	addq	%rax, %rdx
	leaq	-1(%rbp), %rax
	movq	%rax, %rsi
	movq	%rdx, %rdi
	call	_ZNSt11char_traitsIcE6assignERcRKc
	nop
	leave
	.cfi_def_cfa 7, 8
	ret
	.cfi_endproc
.LFE2565:
	.size	_ZNSt7__cxx1112basic_stringIcSt11char_traitsIcESaIcEE13_M_set_lengthEm, .-_ZNSt7__cxx1112basic_stringIcSt11char_traitsIcESaIcEE13_M_set_lengthEm
	.section	.text._ZNSt7__cxx1112basic_stringIcSt11char_traitsIcESaIcEE10_M_disposeEv,"axG",@progbits,_ZNSt7__cxx1112basic_stringIcSt11char_traitsIcESaIcEE10_M_disposeEv,comdat
	.align 2
	.weak	_ZNSt7__cxx1112basic_stringIcSt11char_traitsIcESaIcEE10_M_disposeEv
	.type	_ZNSt7__cxx1112basic_stringIcSt11char_traitsIcESaIcEE10_M_disposeEv, @function
_ZNSt7__cxx1112basic_stringIcSt11char_traitsIcESaIcEE10_M_disposeEv:
.LFB2566:
	.cfi_startproc
	pushq	%rbp
	.cfi_def_cfa_offset 16
	.cfi_offset 6, -16
	movq	%rsp, %rbp
	.cfi_def_cfa_register 6
	subq	$16, %rsp
	movq	%rdi, -8(%rbp)
	movq	-8(%rbp), %rax
	movq	%rax, %rdi
	call	_ZNKSt7__cxx1112basic_stringIcSt11char_traitsIcESaIcEE11_M_is_localEv
	xorl	$1, %eax
	testb	%al, %al
	je	.L39
	movq	-8(%rbp), %rax
	movq	16(%rax), %rdx
	movq	-8(%rbp), %rax
	movq	%rdx, %rsi
	movq	%rax, %rdi
	call	_ZNSt7__cxx1112basic_stringIcSt11char_traitsIcESaIcEE10_M_destroyEm
.L39:
	nop
	leave
	.cfi_def_cfa 7, 8
	ret
	.cfi_endproc
.LFE2566:
	.size	_ZNSt7__cxx1112basic_stringIcSt11char_traitsIcESaIcEE10_M_disposeEv, .-_ZNSt7__cxx1112basic_stringIcSt11char_traitsIcESaIcEE10_M_disposeEv
	.section	.text._ZNSt7__cxx1112basic_stringIcSt11char_traitsIcESaIcEE16_M_get_allocatorEv,"axG",@progbits,_ZNSt7__cxx1112basic_stringIcSt11char_traitsIcESaIcEE16_M_get_allocatorEv,comdat
	.align 2
	.weak	_ZNSt7__cxx1112basic_stringIcSt11char_traitsIcESaIcEE16_M_get_allocatorEv
	.type	_ZNSt7__cxx1112basic_stringIcSt11char_traitsIcESaIcEE16_M_get_allocatorEv, @function
_ZNSt7__cxx1112basic_stringIcSt11char_traitsIcESaIcEE16_M_get_allocatorEv:
.LFB2569:
	.cfi_startproc
	pushq	%rbp
	.cfi_def_cfa_offset 16
	.cfi_offset 6, -16
	movq	%rsp, %rbp
	.cfi_def_cfa_register 6
	movq	%rdi, -8(%rbp)
	movq	-8(%rbp), %rax
	popq	%rbp
	.cfi_def_cfa 7, 8
	ret
	.cfi_endproc
.LFE2569:
	.size	_ZNSt7__cxx1112basic_stringIcSt11char_traitsIcESaIcEE16_M_get_allocatorEv, .-_ZNSt7__cxx1112basic_stringIcSt11char_traitsIcESaIcEE16_M_get_allocatorEv
	.section	.text._ZNKSt7__cxx1112basic_stringIcSt11char_traitsIcESaIcEE11_M_is_localEv,"axG",@progbits,_ZNKSt7__cxx1112basic_stringIcSt11char_traitsIcESaIcEE11_M_is_localEv,comdat
	.align 2
	.weak	_ZNKSt7__cxx1112basic_stringIcSt11char_traitsIcESaIcEE11_M_is_localEv
	.type	_ZNKSt7__cxx1112basic_stringIcSt11char_traitsIcESaIcEE11_M_is_localEv, @function
_ZNKSt7__cxx1112basic_stringIcSt11char_traitsIcESaIcEE11_M_is_localEv:
.LFB2571:
	.cfi_startproc
	pushq	%rbp
	.cfi_def_cfa_offset 16
	.cfi_offset 6, -16
	movq	%rsp, %rbp
	.cfi_def_cfa_register 6
	pushq	%rbx
	subq	$24, %rsp
	.cfi_offset 3, -24
	movq	%rdi, -24(%rbp)
	movq	-24(%rbp), %rax
	movq	%rax, %rdi
	call	_ZNKSt7__cxx1112basic_stringIcSt11char_traitsIcESaIcEE7_M_dataEv
	movq	%rax, %rbx
	movq	-24(%rbp), %rax
	movq	%rax, %rdi
	call	_ZNKSt7__cxx1112basic_stringIcSt11char_traitsIcESaIcEE13_M_local_dataEv
	cmpq	%rax, %rbx
	sete	%al
	testb	%al, %al
	je	.L43
	movq	-24(%rbp), %rax
	movq	8(%rax), %rax
	cmpq	$15, %rax
	movl	$1, %eax
	jmp	.L45
.L43:
	movl	$0, %eax
.L45:
	movq	-8(%rbp), %rbx
	leave
	.cfi_def_cfa 7, 8
	ret
	.cfi_endproc
.LFE2571:
	.size	_ZNKSt7__cxx1112basic_stringIcSt11char_traitsIcESaIcEE11_M_is_localEv, .-_ZNKSt7__cxx1112basic_stringIcSt11char_traitsIcESaIcEE11_M_is_localEv
	.section	.text._ZNSt7__cxx1112basic_stringIcSt11char_traitsIcESaIcEE9_M_lengthEm,"axG",@progbits,_ZNSt7__cxx1112basic_stringIcSt11char_traitsIcESaIcEE9_M_lengthEm,comdat
	.align 2
	.weak	_ZNSt7__cxx1112basic_stringIcSt11char_traitsIcESaIcEE9_M_lengthEm
	.type	_ZNSt7__cxx1112basic_stringIcSt11char_traitsIcESaIcEE9_M_lengthEm, @function
_ZNSt7__cxx1112basic_stringIcSt11char_traitsIcESaIcEE9_M_lengthEm:
.LFB2575:
	.cfi_startproc
	pushq	%rbp
	.cfi_def_cfa_offset 16
	.cfi_offset 6, -16
	movq	%rsp, %rbp
	.cfi_def_cfa_register 6
	movq	%rdi, -8(%rbp)
	movq	%rsi, -16(%rbp)
	movq	-8(%rbp), %rax
	movq	-16(%rbp), %rdx
	movq	%rdx, 8(%rax)
	nop
	popq	%rbp
	.cfi_def_cfa 7, 8
	ret
	.cfi_endproc
.LFE2575:
	.size	_ZNSt7__cxx1112basic_stringIcSt11char_traitsIcESaIcEE9_M_lengthEm, .-_ZNSt7__cxx1112basic_stringIcSt11char_traitsIcESaIcEE9_M_lengthEm
	.section	.text._ZNSt15__new_allocatorIcED2Ev,"axG",@progbits,_ZNSt15__new_allocatorIcED5Ev,comdat
	.align 2
	.weak	_ZNSt15__new_allocatorIcED2Ev
	.type	_ZNSt15__new_allocatorIcED2Ev, @function
_ZNSt15__new_allocatorIcED2Ev:
.LFB2611:
	.cfi_startproc
	pushq	%rbp
	.cfi_def_cfa_offset 16
	.cfi_offset 6, -16
	movq	%rsp, %rbp
	.cfi_def_cfa_register 6
	movq	%rdi, -8(%rbp)
	nop
	popq	%rbp
	.cfi_def_cfa 7, 8
	ret
	.cfi_endproc
.LFE2611:
	.size	_ZNSt15__new_allocatorIcED2Ev, .-_ZNSt15__new_allocatorIcED2Ev
	.weak	_ZNSt15__new_allocatorIcED1Ev
	.set	_ZNSt15__new_allocatorIcED1Ev,_ZNSt15__new_allocatorIcED2Ev
	.section	.text._ZNSt19__ptr_traits_ptr_toIPccLb0EE10pointer_toERc,"axG",@progbits,_ZNSt19__ptr_traits_ptr_toIPccLb0EE10pointer_toERc,comdat
	.weak	_ZNSt19__ptr_traits_ptr_toIPccLb0EE10pointer_toERc
	.type	_ZNSt19__ptr_traits_ptr_toIPccLb0EE10pointer_toERc, @function
_ZNSt19__ptr_traits_ptr_toIPccLb0EE10pointer_toERc:
.LFB2672:
	.cfi_startproc
	pushq	%rbp
	.cfi_def_cfa_offset 16
	.cfi_offset 6, -16
	movq	%rsp, %rbp
	.cfi_def_cfa_register 6
	movq	%rdi, -24(%rbp)
	movq	-24(%rbp), %rax
	movq	%rax, -8(%rbp)
	movq	-8(%rbp), %rax
	movq	%rax, -16(%rbp)
	movq	-16(%rbp), %rax
	nop
	popq	%rbp
	.cfi_def_cfa 7, 8
	ret
	.cfi_endproc
.LFE2672:
	.size	_ZNSt19__ptr_traits_ptr_toIPccLb0EE10pointer_toERc, .-_ZNSt19__ptr_traits_ptr_toIPccLb0EE10pointer_toERc
	.section	.text._ZNSt7__cxx1112basic_stringIcSt11char_traitsIcESaIcEE10_M_destroyEm,"axG",@progbits,_ZNSt7__cxx1112basic_stringIcSt11char_traitsIcESaIcEE10_M_destroyEm,comdat
	.align 2
	.weak	_ZNSt7__cxx1112basic_stringIcSt11char_traitsIcESaIcEE10_M_destroyEm
	.type	_ZNSt7__cxx1112basic_stringIcSt11char_traitsIcESaIcEE10_M_destroyEm, @function
_ZNSt7__cxx1112basic_stringIcSt11char_traitsIcESaIcEE10_M_destroyEm:
.LFB2676:
	.cfi_startproc
	pushq	%rbp
	.cfi_def_cfa_offset 16
	.cfi_offset 6, -16
	movq	%rsp, %rbp
	.cfi_def_cfa_register 6
	pushq	%r12
	pushq	%rbx
	subq	$48, %rsp
	.cfi_offset 12, -24
	.cfi_offset 3, -32
	movq	%rdi, -56(%rbp)
	movq	%rsi, -64(%rbp)
	movq	-64(%rbp), %rax
	leaq	1(%rax), %r12
	movq	-56(%rbp), %rax
	movq	%rax, %rdi
	call	_ZNKSt7__cxx1112basic_stringIcSt11char_traitsIcESaIcEE7_M_dataEv
	movq	%rax, %rbx
	movq	-56(%rbp), %rax
	movq	%rax, %rdi
	call	_ZNSt7__cxx1112basic_stringIcSt11char_traitsIcESaIcEE16_M_get_allocatorEv
	movq	%rax, -24(%rbp)
	movq	%rbx, -32(%rbp)
	movq	%r12, -40(%rbp)
	movq	-40(%rbp), %rdx
	movq	-32(%rbp), %rcx
	movq	-24(%rbp), %rax
	movq	%rcx, %rsi
	movq	%rax, %rdi
	call	_ZNSt15__new_allocatorIcE10deallocateEPcm
	nop
	nop
	addq	$48, %rsp
	popq	%rbx
	popq	%r12
	popq	%rbp
	.cfi_def_cfa 7, 8
	ret
	.cfi_endproc
.LFE2676:
	.size	_ZNSt7__cxx1112basic_stringIcSt11char_traitsIcESaIcEE10_M_destroyEm, .-_ZNSt7__cxx1112basic_stringIcSt11char_traitsIcESaIcEE10_M_destroyEm
	.section	.text._ZNKSt7__cxx1112basic_stringIcSt11char_traitsIcESaIcEE13_M_local_dataEv,"axG",@progbits,_ZNKSt7__cxx1112basic_stringIcSt11char_traitsIcESaIcEE13_M_local_dataEv,comdat
	.align 2
	.weak	_ZNKSt7__cxx1112basic_stringIcSt11char_traitsIcESaIcEE13_M_local_dataEv
	.type	_ZNKSt7__cxx1112basic_stringIcSt11char_traitsIcESaIcEE13_M_local_dataEv, @function
_ZNKSt7__cxx1112basic_stringIcSt11char_traitsIcESaIcEE13_M_local_dataEv:
.LFB2680:
	.cfi_startproc
	pushq	%rbp
	.cfi_def_cfa_offset 16
	.cfi_offset 6, -16
	movq	%rsp, %rbp
	.cfi_def_cfa_register 6
	subq	$16, %rsp
	movq	%rdi, -8(%rbp)
	movq	-8(%rbp), %rax
	addq	$16, %rax
	movq	%rax, %rdi
	call	_ZNSt19__ptr_traits_ptr_toIPKcS0_Lb0EE10pointer_toERS0_
	leave
	.cfi_def_cfa 7, 8
	ret
	.cfi_endproc
.LFE2680:
	.size	_ZNKSt7__cxx1112basic_stringIcSt11char_traitsIcESaIcEE13_M_local_dataEv, .-_ZNKSt7__cxx1112basic_stringIcSt11char_traitsIcESaIcEE13_M_local_dataEv
	.section	.text._ZNSt19__ptr_traits_ptr_toIPKcS0_Lb0EE10pointer_toERS0_,"axG",@progbits,_ZNSt19__ptr_traits_ptr_toIPKcS0_Lb0EE10pointer_toERS0_,comdat
	.weak	_ZNSt19__ptr_traits_ptr_toIPKcS0_Lb0EE10pointer_toERS0_
	.type	_ZNSt19__ptr_traits_ptr_toIPKcS0_Lb0EE10pointer_toERS0_, @function
_ZNSt19__ptr_traits_ptr_toIPKcS0_Lb0EE10pointer_toERS0_:
.LFB2748:
	.cfi_startproc
	pushq	%rbp
	.cfi_def_cfa_offset 16
	.cfi_offset 6, -16
	movq	%rsp, %rbp
	.cfi_def_cfa_register 6
	movq	%rdi, -24(%rbp)
	movq	-24(%rbp), %rax
	movq	%rax, -8(%rbp)
	movq	-8(%rbp), %rax
	movq	%rax, -16(%rbp)
	movq	-16(%rbp), %rax
	nop
	popq	%rbp
	.cfi_def_cfa 7, 8
	ret
	.cfi_endproc
.LFE2748:
	.size	_ZNSt19__ptr_traits_ptr_toIPKcS0_Lb0EE10pointer_toERS0_, .-_ZNSt19__ptr_traits_ptr_toIPKcS0_Lb0EE10pointer_toERS0_
	.section	.text._ZNSt15__new_allocatorIcE10deallocateEPcm,"axG",@progbits,_ZNSt15__new_allocatorIcE10deallocateEPcm,comdat
	.align 2
	.weak	_ZNSt15__new_allocatorIcE10deallocateEPcm
	.type	_ZNSt15__new_allocatorIcE10deallocateEPcm, @function
_ZNSt15__new_allocatorIcE10deallocateEPcm:
.LFB2802:
	.cfi_startproc
	pushq	%rbp
	.cfi_def_cfa_offset 16
	.cfi_offset 6, -16
	movq	%rsp, %rbp
	.cfi_def_cfa_register 6
	subq	$32, %rsp
	movq	%rdi, -8(%rbp)
	movq	%rsi, -16(%rbp)
	movq	%rdx, -24(%rbp)
	movq	-24(%rbp), %rdx
	movq	-16(%rbp), %rax
	movq	%rdx, %rsi
	movq	%rax, %rdi
	call	_ZdlPvm@PLT
	leave
	.cfi_def_cfa 7, 8
	ret
	.cfi_endproc
.LFE2802:
	.size	_ZNSt15__new_allocatorIcE10deallocateEPcm, .-_ZNSt15__new_allocatorIcE10deallocateEPcm
	.hidden	DW.ref.__gxx_personality_v0
	.weak	DW.ref.__gxx_personality_v0
	.section	.data.rel.local.DW.ref.__gxx_personality_v0,"awG",@progbits,DW.ref.__gxx_personality_v0,comdat
	.align 8
	.type	DW.ref.__gxx_personality_v0, @object
	.size	DW.ref.__gxx_personality_v0, 8
DW.ref.__gxx_personality_v0:
	.quad	__gxx_personality_v0
	.globl	__gxx_personality_v0
	.ident	"GCC: (Debian 15.2.0-14) 15.2.0"
	.section	.note.GNU-stack,"",@progbits
